; Function Attrs: mustprogress uwtable
define noundef i32 @_ZN3re26Regexp11NumCapturesEv(ptr noundef nonnull align 8 dereferenceable(40) %this) local_unnamed_addr #7 align 2 personality ptr @__gxx_personality_v0 {
entry:
  %w = alloca %"class.re2::NumCapturesWalker", align 8
  store ptr getelementptr inbounds ({ [8 x ptr] }, ptr @_ZTVN3re26Regexp6WalkerIiEE, i64 0, i32 0, i64 2), ptr %w, align 8
  %stack_.i.i = getelementptr inbounds i8, ptr %w, i64 8
  call void @llvm.memset.p0.i64(ptr noundef nonnull align 8 dereferenceable(80) %stack_.i.i, i8 0, i64 80, i1 false)
  call void @_ZNSt11_Deque_baseIN3re29WalkStateIiEESaIS2_EE17_M_initialize_mapEm(ptr noundef nonnull align 8 dereferenceable(80) %stack_.i.i, i64 noundef 0)
  %stopped_early_.i.i = getelementptr inbounds i8, ptr %w, i64 88
  store i8 0, ptr %stopped_early_.i.i, align 8
  store ptr getelementptr inbounds ({ [8 x ptr] }, ptr @_ZTVN3re217NumCapturesWalkerE, i64 0, i32 0, i64 2), ptr %w, align 8
  %ncapture_.i = getelementptr inbounds i8, ptr %w, i64 96
  store i32 0, ptr %ncapture_.i, align 8
  %max_visits_.i = getelementptr inbounds i8, ptr %w, i64 92
  store i32 1000000, ptr %max_visits_.i, align 4
  %call.i1 = invoke noundef i32 @_ZN3re26Regexp6WalkerIiE12WalkInternalEPS0_ib(ptr noundef nonnull align 8 dereferenceable(96) %w, ptr noundef nonnull %this, i32 noundef 0, i1 noundef zeroext true)
          to label %invoke.cont unwind label %lpad

invoke.cont:                                      ; preds = %entry
  %0 = load i32, ptr %ncapture_.i, align 8
  store ptr getelementptr inbounds ({ [8 x ptr] }, ptr @_ZTVN3re26Regexp6WalkerIiEE, i64 0, i32 0, i64 2), ptr %w, align 8
  invoke void @_ZN3re26Regexp6WalkerIiE5ResetEv(ptr noundef nonnull align 8 dereferenceable(96) %w)
          to label %invoke.cont.i.i unwind label %terminate.lpad.i.i

invoke.cont.i.i:                                  ; preds = %invoke.cont
  %1 = load ptr, ptr %stack_.i.i, align 8
  %tobool.not.i.i.i.i.i = icmp eq ptr %1, null
  br i1 %tobool.not.i.i.i.i.i, label %_ZN3re217NumCapturesWalkerD2Ev.exit, label %if.then.i.i.i.i.i

if.then.i.i.i.i.i:                                ; preds = %invoke.cont.i.i
  %_M_node5.i.i6.i.i.i.i = getelementptr inbounds i8, ptr %w, i64 80
  %_M_node5.i.i.i.i.i.i = getelementptr inbounds i8, ptr %w, i64 48
  %2 = load ptr, ptr %_M_node5.i.i.i.i.i.i, align 8
  %3 = load ptr, ptr %_M_node5.i.i6.i.i.i.i, align 8
  %add.ptr.i.i.i.i.i = getelementptr inbounds i8, ptr %3, i64 8
  %cmp3.i.i.i.i.i.i = icmp ult ptr %2, %add.ptr.i.i.i.i.i
  br i1 %cmp3.i.i.i.i.i.i, label %for.body.i.i.i.i.i.i, label %_ZNSt11_Deque_baseIN3re29WalkStateIiEESaIS2_EE16_M_destroy_nodesEPPS2_S6_.exit.i.i.i.i.i

for.body.i.i.i.i.i.i:                             ; preds = %if.then.i.i.i.i.i, %for.body.i.i.i.i.i.i
  %__n.04.i.i.i.i.i.i = phi ptr [ %incdec.ptr.i.i.i.i.i.i, %for.body.i.i.i.i.i.i ], [ %2, %if.then.i.i.i.i.i ]
  %4 = load ptr, ptr %__n.04.i.i.i.i.i.i, align 8
  call void @_ZdlPv(ptr noundef %4) #26
  %incdec.ptr.i.i.i.i.i.i = getelementptr inbounds i8, ptr %__n.04.i.i.i.i.i.i, i64 8
  %cmp.i.i.i.i.i.i = icmp ult ptr %__n.04.i.i.i.i.i.i, %3
  br i1 %cmp.i.i.i.i.i.i, label %for.body.i.i.i.i.i.i, label %_ZNSt11_Deque_baseIN3re29WalkStateIiEESaIS2_EE16_M_destroy_nodesEPPS2_S6_.exit.loopexit.i.i.i.i.i, !llvm.loop !24

_ZNSt11_Deque_baseIN3re29WalkStateIiEESaIS2_EE16_M_destroy_nodesEPPS2_S6_.exit.loopexit.i.i.i.i.i: ; preds = %for.body.i.i.i.i.i.i
  %.pre.i.i.i.i.i = load ptr, ptr %stack_.i.i, align 8
  br label %_ZNSt11_Deque_baseIN3re29WalkStateIiEESaIS2_EE16_M_destroy_nodesEPPS2_S6_.exit.i.i.i.i.i

_ZNSt11_Deque_baseIN3re29WalkStateIiEESaIS2_EE16_M_destroy_nodesEPPS2_S6_.exit.i.i.i.i.i: ; preds = %_ZNSt11_Deque_baseIN3re29WalkStateIiEESaIS2_EE16_M_destroy_nodesEPPS2_S6_.exit.loopexit.i.i.i.i.i, %if.then.i.i.i.i.i
  %5 = phi ptr [ %.pre.i.i.i.i.i, %_ZNSt11_Deque_baseIN3re29WalkStateIiEESaIS2_EE16_M_destroy_nodesEPPS2_S6_.exit.loopexit.i.i.i.i.i ], [ %1, %if.then.i.i.i.i.i ]
  call void @_ZdlPv(ptr noundef %5) #26
  br label %_ZN3re217NumCapturesWalkerD2Ev.exit

terminate.lpad.i.i:                               ; preds = %invoke.cont
  %6 = landingpad { ptr, i32 }
          catch ptr null
  %7 = extractvalue { ptr, i32 } %6, 0
  call void @__clang_call_terminate(ptr %7) #27
  unreachable

_ZN3re217NumCapturesWalkerD2Ev.exit:              ; preds = %invoke.cont.i.i, %_ZNSt11_Deque_baseIN3re29WalkStateIiEESaIS2_EE16_M_destroy_nodesEPPS2_S6_.exit.i.i.i.i.i
  ret i32 %0

lpad:                                             ; preds = %entry
  %8 = landingpad { ptr, i32 }
          cleanup
  call void @_ZN3re217NumCapturesWalkerD2Ev(ptr noundef nonnull align 8 dereferenceable(100) %w) #25
  resume { ptr, i32 } %8
}